; Function Attrs: mustprogress uwtable
define dso_local void @_ZN4Luau7CodeGen3A6418AssemblyBuilderA646placeBEPKcRNS0_5LabelEh(ptr noundef nonnull align 8 dereferenceable(176) %0, ptr noundef %1, ptr noundef nonnull align 4 captures(none) dereferenceable(8) %2, i8 noundef zeroext %3) local_unnamed_addr #0 align 2 {
  %5 = zext i8 %3 to i32
  %6 = shl i32 %5, 26
  %7 = getelementptr inbounds nuw i8, ptr %0, i64 160
  %8 = load ptr, ptr %7, align 8, !tbaa !39
  %9 = getelementptr inbounds nuw i8, ptr %8, i64 4
  store ptr %9, ptr %7, align 8, !tbaa !39
  store i32 %6, ptr %8, align 4, !tbaa !48
  %10 = getelementptr inbounds nuw i8, ptr %0, i64 168
  %11 = load ptr, ptr %10, align 8, !tbaa !40
  %12 = icmp eq ptr %11, %9
  br i1 %12, label %13, label %_ZN4Luau7CodeGen3A6418AssemblyBuilderA646commitEv.exit

13:                                               ; preds = %4
  tail call void @_ZN4Luau7CodeGen3A6418AssemblyBuilderA646extendEv(ptr noundef nonnull align 8 dereferenceable(176) %0)
  br label %_ZN4Luau7CodeGen3A6418AssemblyBuilderA646commitEv.exit

_ZN4Luau7CodeGen3A6418AssemblyBuilderA646commitEv.exit: ; preds = %4, %13
  tail call void @_ZN4Luau7CodeGen3A6418AssemblyBuilderA6410patchLabelERNS0_5LabelENS2_5Patch4KindE(ptr noundef nonnull align 8 dereferenceable(176) %0, ptr noundef nonnull align 4 dereferenceable(8) %2, i32 noundef 0)
  %14 = getelementptr inbounds nuw i8, ptr %0, i64 80
  %15 = load i8, ptr %14, align 8, !tbaa !14, !range !46, !noundef !47
  %16 = trunc nuw i8 %15 to i1
  br i1 %16, label %17, label %18

17:                                               ; preds = %_ZN4Luau7CodeGen3A6418AssemblyBuilderA646commitEv.exit
  %.sroa.0.0.copyload = load i64, ptr %2, align 4
  tail call void @_ZN4Luau7CodeGen3A6418AssemblyBuilderA643logEPKcNS0_5LabelE(ptr noundef nonnull align 8 dereferenceable(176) %0, ptr noundef %1, i64 %.sroa.0.0.copyload)
  br label %18

18:                                               ; preds = %17, %_ZN4Luau7CodeGen3A6418AssemblyBuilderA646commitEv.exit
  ret void
}